; ModuleID = '21/719.c'
source_filename = "21/719.c"
target datalayout = "e-m:e-p270:32:32-p271:32:32-p272:64:64-i64:64-f80:128-n8:16:32:64-S128"
target triple = "x86_64-pc-linux-gnu"

@.str = private unnamed_addr constant [3 x i8] c"%d\00", align 1
@.str.1 = private unnamed_addr constant [4 x i8] c",%d\00", align 1

; Function Attrs: noinline nounwind uwtable
define dso_local void @main() #0 {
  %1 = alloca i32, align 4
  %2 = alloca i32, align 4
  %3 = alloca i32, align 4
  %4 = alloca i32, align 4
  %5 = alloca i32, align 4
  %6 = alloca double, align 8
  %7 = alloca double, align 8
  %8 = alloca [300 x i32], align 16
  store i32 0, i32* %4, align 4
  store double 0.000000e+00, double* %6, align 8
  store double 0.000000e+00, double* %7, align 8
  %9 = call i32 (i8*, ...) @__isoc99_scanf(i8* getelementptr inbounds ([3 x i8], [3 x i8]* @.str, i64 0, i64 0), i32* %1)
  store i32 0, i32* %2, align 4
  br label %10

10:                                               ; preds = %26, %0
  %11 = load i32, i32* %2, align 4
  %12 = load i32, i32* %1, align 4
  %13 = icmp slt i32 %11, %12
  br i1 %13, label %14, label %29

14:                                               ; preds = %10
  %15 = load i32, i32* %2, align 4
  %16 = sext i32 %15 to i64
  %17 = getelementptr inbounds [300 x i32], [300 x i32]* %8, i64 0, i64 %16
  %18 = call i32 (i8*, ...) @__isoc99_scanf(i8* getelementptr inbounds ([3 x i8], [3 x i8]* @.str, i64 0, i64 0), i32* %17)
  %19 = load double, double* %7, align 8
  %20 = load i32, i32* %2, align 4
  %21 = sext i32 %20 to i64
  %22 = getelementptr inbounds [300 x i32], [300 x i32]* %8, i64 0, i64 %21
  %23 = load i32, i32* %22, align 4
  %24 = sitofp i32 %23 to double
  %25 = fadd double %19, %24
  store double %25, double* %7, align 8
  br label %26

26:                                               ; preds = %14
  %27 = load i32, i32* %2, align 4
  %28 = add nsw i32 %27, 1
  store i32 %28, i32* %2, align 4
  br label %10

29:                                               ; preds = %10
  %30 = load double, double* %7, align 8
  %31 = load i32, i32* %1, align 4
  %32 = sitofp i32 %31 to double
  %33 = fdiv double %30, %32
  store double %33, double* %7, align 8
  store i32 0, i32* %2, align 4
  br label %34

34:                                               ; preds = %59, %29
  %35 = load i32, i32* %2, align 4
  %36 = load i32, i32* %1, align 4
  %37 = icmp slt i32 %35, %36
  br i1 %37, label %38, label %62

38:                                               ; preds = %34
  %39 = load i32, i32* %2, align 4
  %40 = sext i32 %39 to i64
  %41 = getelementptr inbounds [300 x i32], [300 x i32]* %8, i64 0, i64 %40
  %42 = load i32, i32* %41, align 4
  %43 = sitofp i32 %42 to double
  %44 = load double, double* %7, align 8
  %45 = fsub double %43, %44
  %46 = call double @llvm.fabs.f64(double %45)
  %47 = load double, double* %6, align 8
  %48 = fcmp ogt double %46, %47
  br i1 %48, label %49, label %58

49:                                               ; preds = %38
  %50 = load i32, i32* %2, align 4
  %51 = sext i32 %50 to i64
  %52 = getelementptr inbounds [300 x i32], [300 x i32]* %8, i64 0, i64 %51
  %53 = load i32, i32* %52, align 4
  %54 = sitofp i32 %53 to double
  %55 = load double, double* %7, align 8
  %56 = fsub double %54, %55
  %57 = call double @llvm.fabs.f64(double %56)
  store double %57, double* %6, align 8
  br label %58

58:                                               ; preds = %49, %38
  br label %59

59:                                               ; preds = %58
  %60 = load i32, i32* %2, align 4
  %61 = add nsw i32 %60, 1
  store i32 %61, i32* %2, align 4
  br label %34

62:                                               ; preds = %34
  store i32 0, i32* %2, align 4
  br label %63

63:                                               ; preds = %110, %62
  %64 = load i32, i32* %2, align 4
  %65 = load i32, i32* %1, align 4
  %66 = sub nsw i32 %65, 1
  %67 = icmp slt i32 %64, %66
  br i1 %67, label %68, label %113

68:                                               ; preds = %63
  store i32 0, i32* %3, align 4
  br label %69

69:                                               ; preds = %106, %68
  %70 = load i32, i32* %3, align 4
  %71 = load i32, i32* %1, align 4
  %72 = sub nsw i32 %71, 1
  %73 = load i32, i32* %2, align 4
  %74 = sub nsw i32 %72, %73
  %75 = icmp slt i32 %70, %74
  br i1 %75, label %76, label %109

76:                                               ; preds = %69
  %77 = load i32, i32* %3, align 4
  %78 = sext i32 %77 to i64
  %79 = getelementptr inbounds [300 x i32], [300 x i32]* %8, i64 0, i64 %78
  %80 = load i32, i32* %79, align 4
  %81 = load i32, i32* %3, align 4
  %82 = add nsw i32 %81, 1
  %83 = sext i32 %82 to i64
  %84 = getelementptr inbounds [300 x i32], [300 x i32]* %8, i64 0, i64 %83
  %85 = load i32, i32* %84, align 4
  %86 = icmp sgt i32 %80, %85
  br i1 %86, label %87, label %105

87:                                               ; preds = %76
  %88 = load i32, i32* %3, align 4
  %89 = sext i32 %88 to i64
  %90 = getelementptr inbounds [300 x i32], [300 x i32]* %8, i64 0, i64 %89
  %91 = load i32, i32* %90, align 4
  store i32 %91, i32* %5, align 4
  %92 = load i32, i32* %3, align 4
  %93 = add nsw i32 %92, 1
  %94 = sext i32 %93 to i64
  %95 = getelementptr inbounds [300 x i32], [300 x i32]* %8, i64 0, i64 %94
  %96 = load i32, i32* %95, align 4
  %97 = load i32, i32* %3, align 4
  %98 = sext i32 %97 to i64
  %99 = getelementptr inbounds [300 x i32], [300 x i32]* %8, i64 0, i64 %98
  store i32 %96, i32* %99, align 4
  %100 = load i32, i32* %5, align 4
  %101 = load i32, i32* %3, align 4
  %102 = add nsw i32 %101, 1
  %103 = sext i32 %102 to i64
  %104 = getelementptr inbounds [300 x i32], [300 x i32]* %8, i64 0, i64 %103
  store i32 %100, i32* %104, align 4
  br label %105

105:                                              ; preds = %87, %76
  br label %106

106:                                              ; preds = %105
  %107 = load i32, i32* %3, align 4
  %108 = add nsw i32 %107, 1
  store i32 %108, i32* %3, align 4
  br label %69

109:                                              ; preds = %69
  br label %110

110:                                              ; preds = %109
  %111 = load i32, i32* %2, align 4
  %112 = add nsw i32 %111, 1
  store i32 %112, i32* %2, align 4
  br label %63

113:                                              ; preds = %63
  store i32 0, i32* %2, align 4
  br label %114

114:                                              ; preds = %149, %113
  %115 = load i32, i32* %2, align 4
  %116 = load i32, i32* %1, align 4
  %117 = icmp slt i32 %115, %116
  br i1 %117, label %118, label %152

118:                                              ; preds = %114
  %119 = load double, double* %6, align 8
  %120 = load i32, i32* %2, align 4
  %121 = sext i32 %120 to i64
  %122 = getelementptr inbounds [300 x i32], [300 x i32]* %8, i64 0, i64 %121
  %123 = load i32, i32* %122, align 4
  %124 = sitofp i32 %123 to double
  %125 = load double, double* %7, align 8
  %126 = fsub double %124, %125
  %127 = call double @llvm.fabs.f64(double %126)
  %128 = fsub double %119, %127
  %129 = fcmp olt double %128, 1.000000e-09
  br i1 %129, label %130, label %148

130:                                              ; preds = %118
  %131 = load i32, i32* %4, align 4
  %132 = icmp eq i32 %131, 0
  br i1 %132, label %133, label %141

133:                                              ; preds = %130
  %134 = load i32, i32* %4, align 4
  %135 = add nsw i32 %134, 1
  store i32 %135, i32* %4, align 4
  %136 = load i32, i32* %2, align 4
  %137 = sext i32 %136 to i64
  %138 = getelementptr inbounds [300 x i32], [300 x i32]* %8, i64 0, i64 %137
  %139 = load i32, i32* %138, align 4
  %140 = call i32 (i8*, ...) @printf(i8* getelementptr inbounds ([3 x i8], [3 x i8]* @.str, i64 0, i64 0), i32 %139)
  br label %147

141:                                              ; preds = %130
  %142 = load i32, i32* %2, align 4
  %143 = sext i32 %142 to i64
  %144 = getelementptr inbounds [300 x i32], [300 x i32]* %8, i64 0, i64 %143
  %145 = load i32, i32* %144, align 4
  %146 = call i32 (i8*, ...) @printf(i8* getelementptr inbounds ([4 x i8], [4 x i8]* @.str.1, i64 0, i64 0), i32 %145)
  br label %147

147:                                              ; preds = %141, %133
  br label %148

148:                                              ; preds = %147, %118
  br label %149

149:                                              ; preds = %148
  %150 = load i32, i32* %2, align 4
  %151 = add nsw i32 %150, 1
  store i32 %151, i32* %2, align 4
  br label %114

152:                                              ; preds = %114
  ret void
}

declare dso_local i32 @__isoc99_scanf(i8*, ...) #1

; Function Attrs: nounwind readnone speculatable willreturn
declare double @llvm.fabs.f64(double) #2

declare dso_local i32 @printf(i8*, ...) #1


!llvm.module.flags = !{!0}
!llvm.ident = !{!1}

!0 = !{i32 1, !"wchar_size", i32 4}
!1 = !{!"clang version 10.0.0-4ubuntu1 "}
